; Function Attrs: mustprogress nofree norecurse nosync nounwind willreturn memory(none) uwtable
define range(i64 0, 4295884800) i64 @adler32_combine(i64 noundef %0, i64 noundef %1, i64 noundef %2) local_unnamed_addr #1 {
  %4 = urem i64 %2, 65521
  %5 = and i64 %0, 65535
  %6 = mul nuw nsw i64 %4, %5
  %.lhs.trunc.i = trunc nuw i64 %6 to i32
  %7 = urem i32 %.lhs.trunc.i, 65521
  %.zext.i = zext nneg i32 %7 to i64
  %8 = and i64 %1, 65535
  %9 = add nuw nsw i64 %5, 65520
  %10 = add nuw nsw i64 %9, %8
  %11 = lshr i64 %0, 16
  %12 = and i64 %11, 65535
  %13 = lshr i64 %1, 16
  %14 = and i64 %13, 65535
  %15 = add nuw nsw i64 %12, 65521
  %16 = add nuw nsw i64 %15, %14
  %17 = sub nuw nsw i64 %16, %4
  %18 = add nuw nsw i64 %17, %.zext.i
  %19 = icmp samesign ugt i64 %10, 65520
  %20 = add nsw i64 %10, -65521
  %spec.select.i = select i1 %19, i64 %20, i64 65520
  %21 = icmp samesign ugt i64 %spec.select.i, 65520
  %22 = add nsw i64 %spec.select.i, -65521
  %.1.i = select i1 %21, i64 %22, i64 %spec.select.i
  %23 = icmp samesign ugt i64 %18, 131041
  %24 = add nsw i64 %18, -131042
  %.021.i = select i1 %23, i64 %24, i64 %18
  %25 = icmp ugt i64 %.021.i, 65520
  %26 = shl nsw i64 %.021.i, 16
  %27 = add nsw i64 %26, -4293984256
  %28 = select i1 %25, i64 %27, i64 %26
  %29 = or i64 %28, %.1.i
  ret i64 %29
}